; Function Attrs: mustprogress uwtable
define noundef ptr @_ZN6icu_7517TimeZoneNamesImpl24_getAvailableMetaZoneIDsER10UErrorCode(ptr nocapture noundef nonnull readonly align 4 dereferenceable(4) %status) local_unnamed_addr #1 align 2 personality ptr @__gxx_personality_v0 {
entry:
  %0 = load i32, ptr %status, align 4
  %cmp.i = icmp slt i32 %0, 1
  br i1 %cmp.i, label %if.end, label %return

if.end:                                           ; preds = %entry
  %call1 = tail call noundef ptr @_ZN6icu_758ZoneMeta23getAvailableMetazoneIDsEv()
  %cmp = icmp eq ptr %call1, null
  %call3 = tail call noundef ptr @_ZN6icu_757UMemorynwEm(i64 noundef 144) #20
  %new.isnull = icmp eq ptr %call3, null
  br i1 %cmp, label %if.then2, label %if.end4

if.then2:                                         ; preds = %if.end
  br i1 %new.isnull, label %return, label %new.notnull

new.notnull:                                      ; preds = %if.then2
  invoke void @_ZN6icu_7522MetaZoneIDsEnumerationC1Ev(ptr noundef nonnull align 8 dereferenceable(144) %call3)
          to label %return unwind label %lpad

lpad:                                             ; preds = %new.notnull
  %1 = landingpad { ptr, i32 }
          cleanup
  br label %eh.resume

if.end4:                                          ; preds = %if.end
  br i1 %new.isnull, label %return, label %new.notnull7

new.notnull7:                                     ; preds = %if.end4
  invoke void @_ZN6icu_7522MetaZoneIDsEnumerationC1ERKNS_7UVectorE(ptr noundef nonnull align 8 dereferenceable(144) %call3, ptr noundef nonnull align 8 dereferenceable(40) %call1)
          to label %return unwind label %lpad10

lpad10:                                           ; preds = %new.notnull7
  %2 = landingpad { ptr, i32 }
          cleanup
  br label %eh.resume

return:                                           ; preds = %if.end4, %new.notnull7, %if.then2, %new.notnull, %entry
  %retval.0 = phi ptr [ null, %entry ], [ null, %if.then2 ], [ %call3, %new.notnull ], [ null, %if.end4 ], [ %call3, %new.notnull7 ]
  ret ptr %retval.0

eh.resume:                                        ; preds = %lpad10, %lpad
  %.pn = phi { ptr, i32 } [ %1, %lpad ], [ %2, %lpad10 ]
  tail call void @_ZN6icu_757UMemorydlEPv(ptr noundef nonnull %call3) #20
  resume { ptr, i32 } %.pn
}